; ModuleID = '21/1111.c'
source_filename = "21/1111.c"
target datalayout = "e-m:e-p270:32:32-p271:32:32-p272:64:64-i64:64-f80:128-n8:16:32:64-S128"
target triple = "x86_64-pc-linux-gnu"

@.str = private unnamed_addr constant [3 x i8] c"%d\00", align 1
@.str.1 = private unnamed_addr constant [4 x i8] c"%d,\00", align 1

; Function Attrs: noinline nounwind uwtable
define dso_local i32 @main() #0 {
  %1 = alloca i32, align 4
  %2 = alloca i32, align 4
  %3 = alloca i32, align 4
  %4 = alloca i32, align 4
  %5 = alloca i32, align 4
  %6 = alloca i32, align 4
  %7 = alloca [300 x i32], align 16
  %8 = alloca [300 x i32], align 16
  %9 = alloca x86_fp80, align 16
  %10 = alloca [300 x x86_fp80], align 16
  %11 = alloca x86_fp80, align 16
  %12 = alloca x86_fp80, align 16
  store i32 0, i32* %1, align 4
  store i32 0, i32* %6, align 4
  %13 = bitcast [300 x i32]* %7 to i8*
  call void @llvm.memset.p0i8.i64(i8* align 16 %13, i8 0, i64 1200, i1 false)
  store x86_fp80 0xK00000000000000000000, x86_fp80* %9, align 16
  store x86_fp80 0xK00000000000000000000, x86_fp80* %11, align 16
  store x86_fp80 0xK00000000000000000000, x86_fp80* %12, align 16
  %14 = call i32 (i8*, ...) @__isoc99_scanf(i8* getelementptr inbounds ([3 x i8], [3 x i8]* @.str, i64 0, i64 0), i32* %2)
  store i32 0, i32* %3, align 4
  br label %15

15:                                               ; preds = %31, %0
  %16 = load i32, i32* %3, align 4
  %17 = load i32, i32* %2, align 4
  %18 = icmp slt i32 %16, %17
  br i1 %18, label %19, label %34

19:                                               ; preds = %15
  %20 = load i32, i32* %3, align 4
  %21 = sext i32 %20 to i64
  %22 = getelementptr inbounds [300 x i32], [300 x i32]* %8, i64 0, i64 %21
  %23 = call i32 (i8*, ...) @__isoc99_scanf(i8* getelementptr inbounds ([3 x i8], [3 x i8]* @.str, i64 0, i64 0), i32* %22)
  %24 = load x86_fp80, x86_fp80* %9, align 16
  %25 = load i32, i32* %3, align 4
  %26 = sext i32 %25 to i64
  %27 = getelementptr inbounds [300 x i32], [300 x i32]* %8, i64 0, i64 %26
  %28 = load i32, i32* %27, align 4
  %29 = sitofp i32 %28 to x86_fp80
  %30 = fadd x86_fp80 %24, %29
  store x86_fp80 %30, x86_fp80* %9, align 16
  br label %31

31:                                               ; preds = %19
  %32 = load i32, i32* %3, align 4
  %33 = add nsw i32 %32, 1
  store i32 %33, i32* %3, align 4
  br label %15

34:                                               ; preds = %15
  %35 = load x86_fp80, x86_fp80* %9, align 16
  %36 = load i32, i32* %2, align 4
  %37 = sitofp i32 %36 to x86_fp80
  %38 = fdiv x86_fp80 %35, %37
  store x86_fp80 %38, x86_fp80* %11, align 16
  store i32 0, i32* %3, align 4
  br label %39

39:                                               ; preds = %81, %34
  %40 = load i32, i32* %3, align 4
  %41 = load i32, i32* %2, align 4
  %42 = icmp slt i32 %40, %41
  br i1 %42, label %43, label %84

43:                                               ; preds = %39
  %44 = load i32, i32* %3, align 4
  %45 = sext i32 %44 to i64
  %46 = getelementptr inbounds [300 x i32], [300 x i32]* %8, i64 0, i64 %45
  %47 = load i32, i32* %46, align 4
  %48 = sitofp i32 %47 to x86_fp80
  %49 = load x86_fp80, x86_fp80* %11, align 16
  %50 = fsub x86_fp80 %48, %49
  %51 = load i32, i32* %3, align 4
  %52 = sext i32 %51 to i64
  %53 = getelementptr inbounds [300 x x86_fp80], [300 x x86_fp80]* %10, i64 0, i64 %52
  store x86_fp80 %50, x86_fp80* %53, align 16
  %54 = load i32, i32* %3, align 4
  %55 = sext i32 %54 to i64
  %56 = getelementptr inbounds [300 x x86_fp80], [300 x x86_fp80]* %10, i64 0, i64 %55
  %57 = load x86_fp80, x86_fp80* %56, align 16
  %58 = fcmp olt x86_fp80 %57, 0xK00000000000000000000
  br i1 %58, label %59, label %68

59:                                               ; preds = %43
  %60 = load i32, i32* %3, align 4
  %61 = sext i32 %60 to i64
  %62 = getelementptr inbounds [300 x x86_fp80], [300 x x86_fp80]* %10, i64 0, i64 %61
  %63 = load x86_fp80, x86_fp80* %62, align 16
  %64 = fneg x86_fp80 %63
  %65 = load i32, i32* %3, align 4
  %66 = sext i32 %65 to i64
  %67 = getelementptr inbounds [300 x x86_fp80], [300 x x86_fp80]* %10, i64 0, i64 %66
  store x86_fp80 %64, x86_fp80* %67, align 16
  br label %68

68:                                               ; preds = %59, %43
  %69 = load i32, i32* %3, align 4
  %70 = sext i32 %69 to i64
  %71 = getelementptr inbounds [300 x x86_fp80], [300 x x86_fp80]* %10, i64 0, i64 %70
  %72 = load x86_fp80, x86_fp80* %71, align 16
  %73 = load x86_fp80, x86_fp80* %12, align 16
  %74 = fcmp ogt x86_fp80 %72, %73
  br i1 %74, label %75, label %80

75:                                               ; preds = %68
  %76 = load i32, i32* %3, align 4
  %77 = sext i32 %76 to i64
  %78 = getelementptr inbounds [300 x x86_fp80], [300 x x86_fp80]* %10, i64 0, i64 %77
  %79 = load x86_fp80, x86_fp80* %78, align 16
  store x86_fp80 %79, x86_fp80* %12, align 16
  br label %80

80:                                               ; preds = %75, %68
  br label %81

81:                                               ; preds = %80
  %82 = load i32, i32* %3, align 4
  %83 = add nsw i32 %82, 1
  store i32 %83, i32* %3, align 4
  br label %39

84:                                               ; preds = %39
  store i32 0, i32* %4, align 4
  br label %85

85:                                               ; preds = %132, %84
  %86 = load i32, i32* %4, align 4
  %87 = load i32, i32* %2, align 4
  %88 = sub nsw i32 %87, 1
  %89 = icmp slt i32 %86, %88
  br i1 %89, label %90, label %135

90:                                               ; preds = %85
  store i32 0, i32* %3, align 4
  br label %91

91:                                               ; preds = %128, %90
  %92 = load i32, i32* %3, align 4
  %93 = load i32, i32* %2, align 4
  %94 = sub nsw i32 %93, 1
  %95 = load i32, i32* %4, align 4
  %96 = sub nsw i32 %94, %95
  %97 = icmp slt i32 %92, %96
  br i1 %97, label %98, label %131

98:                                               ; preds = %91
  %99 = load i32, i32* %3, align 4
  %100 = sext i32 %99 to i64
  %101 = getelementptr inbounds [300 x i32], [300 x i32]* %8, i64 0, i64 %100
  %102 = load i32, i32* %101, align 4
  %103 = load i32, i32* %3, align 4
  %104 = add nsw i32 %103, 1
  %105 = sext i32 %104 to i64
  %106 = getelementptr inbounds [300 x i32], [300 x i32]* %8, i64 0, i64 %105
  %107 = load i32, i32* %106, align 4
  %108 = icmp sgt i32 %102, %107
  br i1 %108, label %109, label %127

109:                                              ; preds = %98
  %110 = load i32, i32* %3, align 4
  %111 = sext i32 %110 to i64
  %112 = getelementptr inbounds [300 x i32], [300 x i32]* %8, i64 0, i64 %111
  %113 = load i32, i32* %112, align 4
  store i32 %113, i32* %5, align 4
  %114 = load i32, i32* %3, align 4
  %115 = add nsw i32 %114, 1
  %116 = sext i32 %115 to i64
  %117 = getelementptr inbounds [300 x i32], [300 x i32]* %8, i64 0, i64 %116
  %118 = load i32, i32* %117, align 4
  %119 = load i32, i32* %3, align 4
  %120 = sext i32 %119 to i64
  %121 = getelementptr inbounds [300 x i32], [300 x i32]* %8, i64 0, i64 %120
  store i32 %118, i32* %121, align 4
  %122 = load i32, i32* %5, align 4
  %123 = load i32, i32* %3, align 4
  %124 = add nsw i32 %123, 1
  %125 = sext i32 %124 to i64
  %126 = getelementptr inbounds [300 x i32], [300 x i32]* %8, i64 0, i64 %125
  store i32 %122, i32* %126, align 4
  br label %127

127:                                              ; preds = %109, %98
  br label %128

128:                                              ; preds = %127
  %129 = load i32, i32* %3, align 4
  %130 = add nsw i32 %129, 1
  store i32 %130, i32* %3, align 4
  br label %91

131:                                              ; preds = %91
  br label %132

132:                                              ; preds = %131
  %133 = load i32, i32* %4, align 4
  %134 = add nsw i32 %133, 1
  store i32 %134, i32* %4, align 4
  br label %85

135:                                              ; preds = %85
  store i32 0, i32* %3, align 4
  br label %136

136:                                              ; preds = %172, %135
  %137 = load i32, i32* %3, align 4
  %138 = load i32, i32* %2, align 4
  %139 = icmp slt i32 %137, %138
  br i1 %139, label %140, label %175

140:                                              ; preds = %136
  %141 = load i32, i32* %3, align 4
  %142 = sext i32 %141 to i64
  %143 = getelementptr inbounds [300 x i32], [300 x i32]* %8, i64 0, i64 %142
  %144 = load i32, i32* %143, align 4
  %145 = sitofp i32 %144 to x86_fp80
  %146 = load x86_fp80, x86_fp80* %11, align 16
  %147 = fsub x86_fp80 %145, %146
  %148 = load x86_fp80, x86_fp80* %12, align 16
  %149 = fcmp oeq x86_fp80 %147, %148
  br i1 %149, label %161, label %150

150:                                              ; preds = %140
  %151 = load i32, i32* %3, align 4
  %152 = sext i32 %151 to i64
  %153 = getelementptr inbounds [300 x i32], [300 x i32]* %8, i64 0, i64 %152
  %154 = load i32, i32* %153, align 4
  %155 = sitofp i32 %154 to x86_fp80
  %156 = load x86_fp80, x86_fp80* %11, align 16
  %157 = fsub x86_fp80 %155, %156
  %158 = load x86_fp80, x86_fp80* %12, align 16
  %159 = fneg x86_fp80 %158
  %160 = fcmp oeq x86_fp80 %157, %159
  br i1 %160, label %161, label %171

161:                                              ; preds = %150, %140
  %162 = load i32, i32* %3, align 4
  %163 = sext i32 %162 to i64
  %164 = getelementptr inbounds [300 x i32], [300 x i32]* %8, i64 0, i64 %163
  %165 = load i32, i32* %164, align 4
  %166 = load i32, i32* %6, align 4
  %167 = sext i32 %166 to i64
  %168 = getelementptr inbounds [300 x i32], [300 x i32]* %7, i64 0, i64 %167
  store i32 %165, i32* %168, align 4
  %169 = load i32, i32* %6, align 4
  %170 = add nsw i32 %169, 1
  store i32 %170, i32* %6, align 4
  br label %171

171:                                              ; preds = %161, %150
  br label %172

172:                                              ; preds = %171
  %173 = load i32, i32* %3, align 4
  %174 = add nsw i32 %173, 1
  store i32 %174, i32* %3, align 4
  br label %136

175:                                              ; preds = %136
  store i32 0, i32* %3, align 4
  br label %176

176:                                              ; preds = %187, %175
  %177 = load i32, i32* %3, align 4
  %178 = load i32, i32* %6, align 4
  %179 = sub nsw i32 %178, 1
  %180 = icmp slt i32 %177, %179
  br i1 %180, label %181, label %190

181:                                              ; preds = %176
  %182 = load i32, i32* %3, align 4
  %183 = sext i32 %182 to i64
  %184 = getelementptr inbounds [300 x i32], [300 x i32]* %7, i64 0, i64 %183
  %185 = load i32, i32* %184, align 4
  %186 = call i32 (i8*, ...) @printf(i8* getelementptr inbounds ([4 x i8], [4 x i8]* @.str.1, i64 0, i64 0), i32 %185)
  br label %187

187:                                              ; preds = %181
  %188 = load i32, i32* %3, align 4
  %189 = add nsw i32 %188, 1
  store i32 %189, i32* %3, align 4
  br label %176

190:                                              ; preds = %176
  %191 = load i32, i32* %6, align 4
  %192 = sub nsw i32 %191, 1
  %193 = sext i32 %192 to i64
  %194 = getelementptr inbounds [300 x i32], [300 x i32]* %7, i64 0, i64 %193
  %195 = load i32, i32* %194, align 4
  %196 = call i32 (i8*, ...) @printf(i8* getelementptr inbounds ([3 x i8], [3 x i8]* @.str, i64 0, i64 0), i32 %195)
  ret i32 0
}

; Function Attrs: argmemonly nounwind willreturn
declare void @llvm.memset.p0i8.i64(i8* nocapture writeonly, i8, i64, i1 immarg) #1

declare dso_local i32 @__isoc99_scanf(i8*, ...) #2

declare dso_local i32 @printf(i8*, ...) #2


!llvm.module.flags = !{!0}
!llvm.ident = !{!1}

!0 = !{i32 1, !"wchar_size", i32 4}
!1 = !{!"clang version 10.0.0-4ubuntu1 "}
